#include <math.h>
#include <stdio.h>
#include <stdlib.h>
#include <string.h>

int main(){
    int n=0,i=0,j=0,LEN=0,k=0;
    scanf("%d",&n);
    char zf[256];
    for(i=0;i<n;i++){
        j=0;
        scanf("%s",zf);
        LEN=strlen(zf);
        while(j<LEN){
            if(zf[j]=='A'){
                zf[j]='T';
            }else if(zf[j]=='T'){
                zf[j]='A';
            }else if(zf[j]=='C'){
                zf[j]='G';
            }else if(zf[j]=='G'){
                zf[j]='C';
            }
            j++;
        }
        printf("%s\n",zf);
    }
    return 0;
}
